; Function Attrs: mustprogress uwtable
define noundef i64 @_ZN3tsi18SslSessionLRUCache4SizeEv(ptr noundef nonnull align 8 dereferenceable(104) %0) local_unnamed_addr #0 align 2 personality ptr @__gxx_personality_v0 {
  %2 = getelementptr inbounds nuw i8, ptr %0, i64 16
  tail call void @_ZN4absl12lts_202407225Mutex4LockEv(ptr noundef nonnull align 8 dereferenceable(8) %2)
  %3 = getelementptr inbounds nuw i8, ptr %0, i64 48
  %4 = load i64, ptr %3, align 8, !tbaa !52
  invoke void @_ZN4absl12lts_202407225Mutex6UnlockEv(ptr noundef nonnull align 8 dereferenceable(8) %2)
          to label %_ZN4absl12lts_202407229MutexLockD2Ev.exit unwind label %5

5:                                                ; preds = %1
  %6 = landingpad { ptr, i32 }
          catch ptr null
  %7 = extractvalue { ptr, i32 } %6, 0
  tail call void @__clang_call_terminate(ptr %7) #25
  unreachable

_ZN4absl12lts_202407229MutexLockD2Ev.exit:        ; preds = %1
  ret i64 %4
}